target datalayout = "e-m:e-p270:32:32-p271:32:32-p272:64:64-i64:64-i128:128-f80:128-n8:16:32:64-S128"
target triple = "x86_64-pc-linux-gnu"

%struct._object = type { %union.anon, ptr }
%union.anon = type { i64 }
%struct.PyVarObject = type { %struct._object, i64 }
%struct._io_state = type { i32, ptr, ptr, ptr, ptr, ptr, ptr, ptr, ptr, ptr, ptr, ptr, ptr, ptr, ptr, ptr }
%struct._typeobject = type { %struct.PyVarObject, ptr, i64, i64, ptr, i64, ptr, ptr, ptr, ptr, ptr, ptr, ptr, ptr, ptr, ptr, ptr, ptr, ptr, i64, ptr, ptr, ptr, ptr, i64, ptr, ptr, ptr, ptr, ptr, ptr, ptr, ptr, ptr, i64, ptr, ptr, ptr, ptr, ptr, ptr, ptr, ptr, ptr, ptr, ptr, i32, ptr, ptr, i8, i16 }
%struct._heaptypeobject = type { %struct._typeobject, %struct.PyAsyncMethods, %struct.PyNumberMethods, %struct.PyMappingMethods, %struct.PySequenceMethods, %struct.PyBufferProcs, ptr, ptr, ptr, ptr, ptr, ptr, ptr, %struct._specialization_cache }
%struct.PyAsyncMethods = type { ptr, ptr, ptr, ptr }
%struct.PyNumberMethods = type { ptr, ptr, ptr, ptr, ptr, ptr, ptr, ptr, ptr, ptr, ptr, ptr, ptr, ptr, ptr, ptr, ptr, ptr, ptr, ptr, ptr, ptr, ptr, ptr, ptr, ptr, ptr, ptr, ptr, ptr, ptr, ptr, ptr, ptr, ptr, ptr }
%struct.PyMappingMethods = type { ptr, ptr, ptr }
%struct.PySequenceMethods = type { ptr, ptr, ptr, ptr, ptr, ptr, ptr, ptr, ptr, ptr }
%struct.PyBufferProcs = type { ptr, ptr }
%struct._specialization_cache = type { ptr, i32, ptr }
%struct.PyModuleObject = type { %struct._object, ptr, ptr, ptr, ptr, ptr }

@.str.8 = private unnamed_addr constant [5 x i8] c"seek\00", align 1

; Function Attrs: inlinehint nounwind uwtable
define internal ptr @_PyType_GetModuleState(ptr noundef %0) #2 {
  %2 = alloca ptr, align 8
  %3 = alloca ptr, align 8
  %4 = alloca ptr, align 8
  store ptr %0, ptr %2, align 8, !tbaa !26
  call void @llvm.lifetime.start.p0(i64 8, ptr %3) #6
  %5 = load ptr, ptr %2, align 8, !tbaa !26
  store ptr %5, ptr %3, align 8, !tbaa !43
  call void @llvm.lifetime.start.p0(i64 8, ptr %4) #6
  %6 = load ptr, ptr %3, align 8, !tbaa !43
  %7 = getelementptr inbounds nuw %struct._heaptypeobject, ptr %6, i32 0, i32 10
  %8 = load ptr, ptr %7, align 8, !tbaa !45
  store ptr %8, ptr %4, align 8, !tbaa !25
  %9 = load ptr, ptr %4, align 8, !tbaa !25
  %10 = getelementptr inbounds nuw %struct.PyModuleObject, ptr %9, i32 0, i32 3
  %11 = load ptr, ptr %10, align 8, !tbaa !54
  call void @llvm.lifetime.end.p0(i64 8, ptr %4) #6
  call void @llvm.lifetime.end.p0(i64 8, ptr %3) #6
  ret ptr %11
}

; Function Attrs: nounwind uwtable
define internal ptr @iobase_unsupported(ptr noundef %0, ptr noundef %1) #0 {
  %3 = alloca ptr, align 8
  %4 = alloca ptr, align 8
  store ptr %0, ptr %3, align 8, !tbaa !15
  store ptr %1, ptr %4, align 8, !tbaa !21
  %5 = load ptr, ptr %3, align 8, !tbaa !15
  %6 = getelementptr inbounds nuw %struct._io_state, ptr %5, i32 0, i32 1
  %7 = load ptr, ptr %6, align 8, !tbaa !23
  %8 = load ptr, ptr %4, align 8, !tbaa !21
  call void @PyErr_SetString(ptr noundef %7, ptr noundef %8)
  ret ptr null
}

; Function Attrs: inlinehint nounwind uwtable
define internal ptr @get_io_state_by_cls(ptr noundef %0) #2 {
  %2 = alloca ptr, align 8
  %3 = alloca ptr, align 8
  store ptr %0, ptr %2, align 8, !tbaa !26
  call void @llvm.lifetime.start.p0(i64 8, ptr %3) #6
  %4 = load ptr, ptr %2, align 8, !tbaa !26
  %5 = call ptr @_PyType_GetModuleState(ptr noundef %4)
  store ptr %5, ptr %3, align 8, !tbaa !25
  %6 = load ptr, ptr %3, align 8, !tbaa !25
  call void @llvm.lifetime.end.p0(i64 8, ptr %3) #6
  ret ptr %6
}

; Function Attrs: nounwind uwtable
define internal ptr @_io__IOBase_seek_impl(ptr noundef %0, ptr noundef %1, i32 noundef %2, i32 noundef %3) #0 {
  %5 = alloca ptr, align 8
  %6 = alloca ptr, align 8
  %7 = alloca i32, align 4
  %8 = alloca i32, align 4
  %9 = alloca ptr, align 8
  store ptr %0, ptr %5, align 8, !tbaa !4
  store ptr %1, ptr %6, align 8, !tbaa !26
  store i32 %2, ptr %7, align 4, !tbaa !9
  store i32 %3, ptr %8, align 4, !tbaa !9
  call void @llvm.lifetime.start.p0(i64 8, ptr %9) #6
  %10 = load ptr, ptr %6, align 8, !tbaa !26
  %11 = call ptr @get_io_state_by_cls(ptr noundef %10)
  store ptr %11, ptr %9, align 8, !tbaa !15
  %12 = load ptr, ptr %9, align 8, !tbaa !15
  %13 = call ptr @iobase_unsupported(ptr noundef %12, ptr noundef @.str.8)
  call void @llvm.lifetime.end.p0(i64 8, ptr %9) #6
  ret ptr %13
}

; Function Attrs: nounwind uwtable
define internal ptr @_io__IOBase_seek(ptr noundef %0, ptr noundef %1, ptr noundef %2, i64 noundef %3, ptr noundef %4) #0 {
  %6 = alloca ptr, align 8
  %7 = alloca ptr, align 8
  %8 = alloca ptr, align 8
  %9 = alloca i64, align 8
  %10 = alloca ptr, align 8
  %11 = alloca ptr, align 8
  %12 = alloca [2 x ptr], align 16
  %13 = alloca i32, align 4
  %14 = alloca i32, align 4
  store ptr %0, ptr %6, align 8, !tbaa !4
  store ptr %1, ptr %7, align 8, !tbaa !26
  store ptr %2, ptr %8, align 8, !tbaa !17
  store i64 %3, ptr %9, align 8, !tbaa !19
  store ptr %4, ptr %10, align 8, !tbaa !4
  call void @llvm.lifetime.start.p0(i64 8, ptr %11) #6
  store ptr null, ptr %11, align 8, !tbaa !4
  call void @llvm.lifetime.start.p0(i64 16, ptr %12) #6
  call void @llvm.lifetime.start.p0(i64 4, ptr %13) #6
  call void @llvm.lifetime.start.p0(i64 4, ptr %14) #6
  store i32 0, ptr %14, align 4, !tbaa !9
  %15 = load ptr, ptr %10, align 8, !tbaa !4
  %16 = icmp eq ptr %15, null
  br i1 %16, label %17, label %28

17:                                               ; preds = %5
  %18 = load i64, ptr %9, align 8, !tbaa !19
  %19 = icmp sle i64 1, %18
  br i1 %19, label %20, label %28

20:                                               ; preds = %17
  %21 = load i64, ptr %9, align 8, !tbaa !19
  %22 = icmp sle i64 %21, 2
  br i1 %22, label %23, label %28

23:                                               ; preds = %20
  %24 = load ptr, ptr %8, align 8, !tbaa !17
  %25 = icmp ne ptr %24, null
  br i1 %25, label %26, label %28

26:                                               ; preds = %23
  %27 = load ptr, ptr %8, align 8, !tbaa !17
  br label %34

28:                                               ; preds = %23, %20, %17, %5
  %29 = load ptr, ptr %8, align 8, !tbaa !17
  %30 = load i64, ptr %9, align 8, !tbaa !19
  %31 = load ptr, ptr %10, align 8, !tbaa !4
  %32 = getelementptr inbounds [2 x ptr], ptr %12, i64 0, i64 0
  %33 = call ptr @_PyArg_UnpackKeywords(ptr noundef %29, i64 noundef %30, ptr noundef null, ptr noundef %31, ptr noundef @_io__IOBase_seek._parser, i32 noundef 1, i32 noundef 2, i32 noundef 0, i32 noundef 0, ptr noundef %32)
  br label %34

34:                                               ; preds = %28, %26
  %35 = phi ptr [ %27, %26 ], [ %33, %28 ]
  store ptr %35, ptr %8, align 8, !tbaa !17
  %36 = load ptr, ptr %8, align 8, !tbaa !17
  %37 = icmp ne ptr %36, null
  br i1 %37, label %39, label %38

38:                                               ; preds = %34
  br label %72

39:                                               ; preds = %34
  %40 = load ptr, ptr %8, align 8, !tbaa !17
  %41 = getelementptr ptr, ptr %40, i64 0
  %42 = load ptr, ptr %41, align 8, !tbaa !4
  %43 = call i32 @PyLong_AsInt(ptr noundef %42)
  store i32 %43, ptr %13, align 4, !tbaa !9
  %44 = load i32, ptr %13, align 4, !tbaa !9
  %45 = icmp eq i32 %44, -1
  br i1 %45, label %46, label %50

46:                                               ; preds = %39
  %47 = call ptr @PyErr_Occurred()
  %48 = icmp ne ptr %47, null
  br i1 %48, label %49, label %50

49:                                               ; preds = %46
  br label %72

50:                                               ; preds = %46, %39
  %51 = load i64, ptr %9, align 8, !tbaa !19
  %52 = icmp slt i64 %51, 2
  br i1 %52, label %53, label %54

53:                                               ; preds = %50
  br label %66

54:                                               ; preds = %50
  %55 = load ptr, ptr %8, align 8, !tbaa !17
  %56 = getelementptr ptr, ptr %55, i64 1
  %57 = load ptr, ptr %56, align 8, !tbaa !4
  %58 = call i32 @PyLong_AsInt(ptr noundef %57)
  store i32 %58, ptr %14, align 4, !tbaa !9
  %59 = load i32, ptr %14, align 4, !tbaa !9
  %60 = icmp eq i32 %59, -1
  br i1 %60, label %61, label %65

61:                                               ; preds = %54
  %62 = call ptr @PyErr_Occurred()
  %63 = icmp ne ptr %62, null
  br i1 %63, label %64, label %65

64:                                               ; preds = %61
  br label %72

65:                                               ; preds = %61, %54
  br label %66

66:                                               ; preds = %65, %53
  %67 = load ptr, ptr %6, align 8, !tbaa !4
  %68 = load ptr, ptr %7, align 8, !tbaa !26
  %69 = load i32, ptr %13, align 4, !tbaa !9
  %70 = load i32, ptr %14, align 4, !tbaa !9
  %71 = call ptr @_io__IOBase_seek_impl(ptr noundef %67, ptr noundef %68, i32 noundef %69, i32 noundef %70)
  store ptr %71, ptr %11, align 8, !tbaa !4
  br label %72

72:                                               ; preds = %66, %64, %49, %38
  %73 = load ptr, ptr %11, align 8, !tbaa !4
  call void @llvm.lifetime.end.p0(i64 4, ptr %14) #6
  call void @llvm.lifetime.end.p0(i64 4, ptr %13) #6
  call void @llvm.lifetime.end.p0(i64 16, ptr %12) #6
  call void @llvm.lifetime.end.p0(i64 8, ptr %11) #6
  ret ptr %73
}