; Function Attrs: nounwind uwtable
define internal noalias noundef ptr @_io__IOBase_seek(ptr readnone captures(none) %0, ptr noundef readonly captures(none) %1, ptr noundef %2, i64 noundef %3, ptr noundef %4) #0 {
  %6 = alloca [2 x ptr], align 16
  call void @llvm.lifetime.start.p0(i64 16, ptr nonnull %6) #6
  %7 = icmp eq ptr %4, null
  %8 = add i64 %3, -1
  %9 = icmp ult i64 %8, 2
  %or.cond3 = and i1 %7, %9
  %10 = icmp ne ptr %2, null
  %or.cond5 = and i1 %10, %or.cond3
  br i1 %or.cond5, label %.thread, label %11

11:                                               ; preds = %5
  %12 = call ptr @_PyArg_UnpackKeywords(ptr noundef %2, i64 noundef %3, ptr noundef null, ptr noundef %4, ptr noundef nonnull @_io__IOBase_seek._parser, i32 noundef 1, i32 noundef 2, i32 noundef 0, i32 noundef 0, ptr noundef nonnull %6) #6
  %.not = icmp eq ptr %12, null
  br i1 %.not, label %32, label %.thread

.thread:                                          ; preds = %5, %11
  %13 = phi ptr [ %12, %11 ], [ %2, %5 ]
  %14 = load ptr, ptr %13, align 8, !tbaa !4
  %15 = call i32 @PyLong_AsInt(ptr noundef %14) #6
  %16 = icmp eq i32 %15, -1
  br i1 %16, label %17, label %19

17:                                               ; preds = %.thread
  %18 = call ptr @PyErr_Occurred() #6
  %.not27 = icmp eq ptr %18, null
  br i1 %.not27, label %19, label %32

19:                                               ; preds = %17, %.thread
  %20 = icmp slt i64 %3, 2
  br i1 %20, label %28, label %21

21:                                               ; preds = %19
  %22 = getelementptr i8, ptr %13, i64 8
  %23 = load ptr, ptr %22, align 8, !tbaa !4
  %24 = call i32 @PyLong_AsInt(ptr noundef %23) #6
  %25 = icmp eq i32 %24, -1
  br i1 %25, label %26, label %28

26:                                               ; preds = %21
  %27 = call ptr @PyErr_Occurred() #6
  %.not28 = icmp eq ptr %27, null
  br i1 %.not28, label %28, label %32

28:                                               ; preds = %21, %26, %19
  %29 = getelementptr i8, ptr %1, i64 888
  %.val = load ptr, ptr %29, align 8, !tbaa !32
  %30 = getelementptr i8, ptr %.val, i64 32
  %.val.val = load ptr, ptr %30, align 8, !tbaa !41
  %31 = getelementptr i8, ptr %.val.val, i64 8
  %.val.val.val = load ptr, ptr %31, align 8, !tbaa !13
  call void @PyErr_SetString(ptr noundef %.val.val.val, ptr noundef nonnull @.str.8) #6
  br label %32

32:                                               ; preds = %26, %17, %11, %28
  call void @llvm.lifetime.end.p0(i64 16, ptr nonnull %6) #6
  ret ptr null
}